target datalayout = "e-m:e-p270:32:32-p271:32:32-p272:64:64-i64:64-i128:128-f80:128-n8:16:32:64-S128"
target triple = "x86_64-pc-linux-gnu"

%struct.coll_env = type { ptr, %struct.coll_env_coll, i32 }
%struct.coll_env_coll = type { %struct.tMPI_Atomic, %struct.tMPI_Atomic, ptr }
%struct.tMPI_Atomic = type { i32, [60 x i8] }
%struct.coll_env_thread = type { %struct.tMPI_Atomic, %struct.tMPI_Atomic, i32, ptr, ptr, ptr, %struct.tMPI_Event_t, %struct.tMPI_Event_t, ptr }
%struct.tMPI_Event_t = type { %struct.tMPI_Atomic, i32 }

; Function Attrs: inlinehint mustprogress nounwind uwtable
define internal noundef i32 @_ZL21tMPI_Atomic_fetch_addP11tMPI_Atomici(ptr noundef %0, i32 noundef %1) #6 {
  %3 = alloca ptr, align 8
  %4 = alloca i32, align 4
  store ptr %0, ptr %3, align 8, !tbaa !68
  store volatile i32 %1, ptr %4, align 4, !tbaa !8
  %5 = load ptr, ptr %3, align 8, !tbaa !68
  %6 = getelementptr inbounds nuw %struct.tMPI_Atomic, ptr %5, i32 0, i32 0
  %7 = load volatile i32, ptr %4, align 4, !tbaa !8
  %8 = atomicrmw add ptr %6, i32 %7 seq_cst, align 4
  ret i32 %8
}

; Function Attrs: mustprogress uwtable
define noundef i32 @_Z15tMPI_Post_multiP8coll_enviiiP14tmpi_datatype_mPviii(ptr noundef %0, i32 noundef %1, i32 noundef %2, i32 noundef %3, ptr noundef %4, i64 noundef %5, ptr noundef %6, i32 noundef %7, i32 noundef %8, i32 noundef %9) #0 {
  %11 = alloca ptr, align 8
  %12 = alloca i32, align 4
  %13 = alloca i32, align 4
  %14 = alloca i32, align 4
  %15 = alloca ptr, align 8
  %16 = alloca i64, align 8
  %17 = alloca ptr, align 8
  %18 = alloca i32, align 4
  %19 = alloca i32, align 4
  %20 = alloca i32, align 4
  %21 = alloca i32, align 4
  store ptr %0, ptr %11, align 8, !tbaa !3
  store i32 %1, ptr %12, align 4, !tbaa !8
  store i32 %2, ptr %13, align 4, !tbaa !8
  store i32 %3, ptr %14, align 4, !tbaa !8
  store ptr %4, ptr %15, align 8, !tbaa !62
  store i64 %5, ptr %16, align 8, !tbaa !63
  store ptr %6, ptr %17, align 8, !tbaa !65
  store i32 %7, ptr %18, align 4, !tbaa !8
  store i32 %8, ptr %19, align 4, !tbaa !8
  store i32 %9, ptr %20, align 4, !tbaa !8
  call void @llvm.lifetime.start.p0(i64 4, ptr %21) #7
  %22 = load i32, ptr %14, align 4, !tbaa !8
  %23 = load ptr, ptr %11, align 8, !tbaa !3
  %24 = getelementptr inbounds nuw %struct.coll_env, ptr %23, i32 0, i32 0
  %25 = load ptr, ptr %24, align 8, !tbaa !10
  %26 = load i32, ptr %12, align 4, !tbaa !8
  %27 = sext i32 %26 to i64
  %28 = getelementptr inbounds %struct.coll_env_thread, ptr %25, i64 %27
  %29 = getelementptr inbounds nuw %struct.coll_env_thread, ptr %28, i32 0, i32 2
  store i32 %22, ptr %29, align 8, !tbaa !67
  %30 = load ptr, ptr %15, align 8, !tbaa !62
  %31 = load ptr, ptr %11, align 8, !tbaa !3
  %32 = getelementptr inbounds nuw %struct.coll_env, ptr %31, i32 0, i32 0
  %33 = load ptr, ptr %32, align 8, !tbaa !10
  %34 = load i32, ptr %12, align 4, !tbaa !8
  %35 = sext i32 %34 to i64
  %36 = getelementptr inbounds %struct.coll_env_thread, ptr %33, i64 %35
  %37 = getelementptr inbounds nuw %struct.coll_env_thread, ptr %36, i32 0, i32 3
  store ptr %30, ptr %37, align 8, !tbaa !66
  %38 = load ptr, ptr %17, align 8, !tbaa !65
  %39 = load ptr, ptr %11, align 8, !tbaa !3
  %40 = getelementptr inbounds nuw %struct.coll_env, ptr %39, i32 0, i32 0
  %41 = load ptr, ptr %40, align 8, !tbaa !10
  %42 = load i32, ptr %12, align 4, !tbaa !8
  %43 = sext i32 %42 to i64
  %44 = getelementptr inbounds %struct.coll_env_thread, ptr %41, i64 %43
  %45 = getelementptr inbounds nuw %struct.coll_env_thread, ptr %44, i32 0, i32 4
  %46 = load ptr, ptr %45, align 8, !tbaa !29
  %47 = load i32, ptr %13, align 4, !tbaa !8
  %48 = sext i32 %47 to i64
  %49 = getelementptr inbounds ptr, ptr %46, i64 %48
  store ptr %38, ptr %49, align 8, !tbaa !65
  %50 = load i64, ptr %16, align 8, !tbaa !63
  %51 = load ptr, ptr %11, align 8, !tbaa !3
  %52 = getelementptr inbounds nuw %struct.coll_env, ptr %51, i32 0, i32 0
  %53 = load ptr, ptr %52, align 8, !tbaa !10
  %54 = load i32, ptr %12, align 4, !tbaa !8
  %55 = sext i32 %54 to i64
  %56 = getelementptr inbounds %struct.coll_env_thread, ptr %53, i64 %55
  %57 = getelementptr inbounds nuw %struct.coll_env_thread, ptr %56, i32 0, i32 5
  %58 = load ptr, ptr %57, align 8, !tbaa !30
  %59 = load i32, ptr %13, align 4, !tbaa !8
  %60 = sext i32 %59 to i64
  %61 = getelementptr inbounds i64, ptr %58, i64 %60
  store i64 %50, ptr %61, align 8, !tbaa !63
  %62 = load i32, ptr %18, align 4, !tbaa !8
  %63 = load ptr, ptr %11, align 8, !tbaa !3
  %64 = getelementptr inbounds nuw %struct.coll_env, ptr %63, i32 0, i32 0
  %65 = load ptr, ptr %64, align 8, !tbaa !10
  %66 = load i32, ptr %12, align 4, !tbaa !8
  %67 = sext i32 %66 to i64
  %68 = getelementptr inbounds %struct.coll_env_thread, ptr %65, i64 %67
  %69 = getelementptr inbounds nuw %struct.coll_env_thread, ptr %68, i32 0, i32 1
  %70 = getelementptr inbounds nuw %struct.tMPI_Atomic, ptr %69, i32 0, i32 0
  store i32 %62, ptr %70, align 8, !tbaa !28
  fence seq_cst
  %71 = load i32, ptr %19, align 4, !tbaa !8
  %72 = load ptr, ptr %11, align 8, !tbaa !3
  %73 = getelementptr inbounds nuw %struct.coll_env, ptr %72, i32 0, i32 0
  %74 = load ptr, ptr %73, align 8, !tbaa !10
  %75 = load i32, ptr %12, align 4, !tbaa !8
  %76 = sext i32 %75 to i64
  %77 = getelementptr inbounds %struct.coll_env_thread, ptr %74, i64 %76
  %78 = getelementptr inbounds nuw %struct.coll_env_thread, ptr %77, i32 0, i32 0
  %79 = getelementptr inbounds nuw %struct.tMPI_Atomic, ptr %78, i32 0, i32 0
  store i32 %71, ptr %79, align 8, !tbaa !21
  %80 = load i32, ptr %20, align 4, !tbaa !8
  %81 = icmp slt i32 %80, 0
  br i1 %81, label %82, label %108

82:                                               ; preds = %10
  store i32 0, ptr %21, align 4, !tbaa !8
  br label %83

83:                                               ; preds = %104, %82
  %84 = load i32, ptr %21, align 4, !tbaa !8
  %85 = load ptr, ptr %11, align 8, !tbaa !3
  %86 = getelementptr inbounds nuw %struct.coll_env, ptr %85, i32 0, i32 2
  %87 = load i32, ptr %86, align 8, !tbaa !15
  %88 = icmp slt i32 %84, %87
  br i1 %88, label %89, label %107

89:                                               ; preds = %83
  %90 = load i32, ptr %21, align 4, !tbaa !8
  %91 = load i32, ptr %12, align 4, !tbaa !8
  %92 = icmp ne i32 %90, %91
  br i1 %92, label %93, label %103

93:                                               ; preds = %89
  fence seq_cst
  %94 = load ptr, ptr %11, align 8, !tbaa !3
  %95 = getelementptr inbounds nuw %struct.coll_env, ptr %94, i32 0, i32 0
  %96 = load ptr, ptr %95, align 8, !tbaa !10
  %97 = load i32, ptr %21, align 4, !tbaa !8
  %98 = sext i32 %97 to i64
  %99 = getelementptr inbounds %struct.coll_env_thread, ptr %96, i64 %98
  %100 = getelementptr inbounds nuw %struct.coll_env_thread, ptr %99, i32 0, i32 7
  %101 = getelementptr inbounds nuw %struct.tMPI_Event_t, ptr %100, i32 0, i32 0
  %102 = call noundef i32 @_ZL21tMPI_Atomic_fetch_addP11tMPI_Atomici(ptr noundef %101, i32 noundef 1)
  br label %103

103:                                              ; preds = %93, %89
  br label %104

104:                                              ; preds = %103
  %105 = load i32, ptr %21, align 4, !tbaa !8
  %106 = add nsw i32 %105, 1
  store i32 %106, ptr %21, align 4, !tbaa !8
  br label %83, !llvm.loop !70

107:                                              ; preds = %83
  br label %118

108:                                              ; preds = %10
  fence seq_cst
  %109 = load ptr, ptr %11, align 8, !tbaa !3
  %110 = getelementptr inbounds nuw %struct.coll_env, ptr %109, i32 0, i32 0
  %111 = load ptr, ptr %110, align 8, !tbaa !10
  %112 = load i32, ptr %20, align 4, !tbaa !8
  %113 = sext i32 %112 to i64
  %114 = getelementptr inbounds %struct.coll_env_thread, ptr %111, i64 %113
  %115 = getelementptr inbounds nuw %struct.coll_env_thread, ptr %114, i32 0, i32 7
  %116 = getelementptr inbounds nuw %struct.tMPI_Event_t, ptr %115, i32 0, i32 0
  %117 = call noundef i32 @_ZL21tMPI_Atomic_fetch_addP11tMPI_Atomici(ptr noundef %116, i32 noundef 1)
  br label %118

118:                                              ; preds = %108, %107
  call void @llvm.lifetime.end.p0(i64 4, ptr %21) #7
  ret i32 0
}