; Function Attrs: mustprogress nofree norecurse nounwind uwtable
define noundef i32 @_Z15tMPI_Post_multiP8coll_enviiiP14tmpi_datatype_mPviii(ptr noundef readonly captures(none) %0, i32 noundef %1, i32 noundef %2, i32 noundef %3, ptr noundef %4, i64 noundef %5, ptr noundef %6, i32 noundef %7, i32 noundef %8, i32 noundef %9) local_unnamed_addr #6 {
  %11 = alloca i32, align 4
  %12 = alloca i32, align 4
  %13 = load ptr, ptr %0, align 8, !tbaa !3
  %14 = sext i32 %1 to i64
  %15 = getelementptr inbounds %struct.coll_env_thread, ptr %13, i64 %14, i32 2
  store i32 %3, ptr %15, align 8, !tbaa !60
  %16 = getelementptr inbounds %struct.coll_env_thread, ptr %13, i64 %14, i32 3
  store ptr %4, ptr %16, align 8, !tbaa !59
  %17 = getelementptr inbounds %struct.coll_env_thread, ptr %13, i64 %14, i32 4
  %18 = load ptr, ptr %17, align 8, !tbaa !23
  %19 = sext i32 %2 to i64
  %20 = getelementptr inbounds ptr, ptr %18, i64 %19
  store ptr %6, ptr %20, align 8, !tbaa !62
  %21 = load ptr, ptr %0, align 8, !tbaa !3
  %22 = getelementptr inbounds %struct.coll_env_thread, ptr %21, i64 %14, i32 5
  %23 = load ptr, ptr %22, align 8, !tbaa !24
  %24 = getelementptr inbounds i64, ptr %23, i64 %19
  store i64 %5, ptr %24, align 8, !tbaa !57
  %25 = getelementptr inbounds %struct.coll_env_thread, ptr %21, i64 %14, i32 1
  store i32 %7, ptr %25, align 8, !tbaa !22
  fence seq_cst
  %26 = load ptr, ptr %0, align 8, !tbaa !3
  %27 = getelementptr inbounds %struct.coll_env_thread, ptr %26, i64 %14
  store i32 %8, ptr %27, align 8, !tbaa !15
  %28 = icmp slt i32 %9, 0
  br i1 %28, label %.preheader, label %42

.preheader:                                       ; preds = %10
  %29 = getelementptr inbounds nuw i8, ptr %0, i64 144
  %30 = load i32, ptr %29, align 8, !tbaa !12
  %31 = icmp sgt i32 %30, 0
  br i1 %31, label %.lr.ph.preheader, label %.loopexit

.lr.ph.preheader:                                 ; preds = %.preheader
  %32 = zext i32 %1 to i64
  br label %.lr.ph

.lr.ph:                                           ; preds = %.lr.ph.preheader, %38
  %33 = phi i32 [ %30, %.lr.ph.preheader ], [ %39, %38 ]
  %indvars.iv = phi i64 [ 0, %.lr.ph.preheader ], [ %indvars.iv.next, %38 ]
  %.not = icmp eq i64 %indvars.iv, %32
  br i1 %.not, label %38, label %34

34:                                               ; preds = %.lr.ph
  fence seq_cst
  %35 = load ptr, ptr %0, align 8, !tbaa !3
  %36 = getelementptr inbounds nuw %struct.coll_env_thread, ptr %35, i64 %indvars.iv, i32 7
  call void @llvm.lifetime.start.p0(i64 4, ptr nonnull %12)
  store volatile i32 1, ptr %12, align 4, !tbaa !55
  %.0..0..0..0..0..0..i = load volatile i32, ptr %12, align 4, !tbaa !55
  %37 = atomicrmw add ptr %36, i32 %.0..0..0..0..0..0..i seq_cst, align 4
  call void @llvm.lifetime.end.p0(i64 4, ptr nonnull %12)
  %.pre = load i32, ptr %29, align 8, !tbaa !12
  br label %38

38:                                               ; preds = %.lr.ph, %34
  %39 = phi i32 [ %33, %.lr.ph ], [ %.pre, %34 ]
  %indvars.iv.next = add nuw nsw i64 %indvars.iv, 1
  %40 = sext i32 %39 to i64
  %41 = icmp slt i64 %indvars.iv.next, %40
  br i1 %41, label %.lr.ph, label %.loopexit, !llvm.loop !63

42:                                               ; preds = %10
  fence seq_cst
  %43 = load ptr, ptr %0, align 8, !tbaa !3
  %44 = zext nneg i32 %9 to i64
  %45 = getelementptr inbounds nuw %struct.coll_env_thread, ptr %43, i64 %44, i32 7
  call void @llvm.lifetime.start.p0(i64 4, ptr nonnull %11)
  store volatile i32 1, ptr %11, align 4, !tbaa !55
  %.0..0..0..0..0..0..i30 = load volatile i32, ptr %11, align 4, !tbaa !55
  %46 = atomicrmw add ptr %45, i32 %.0..0..0..0..0..0..i30 seq_cst, align 4
  call void @llvm.lifetime.end.p0(i64 4, ptr nonnull %11)
  br label %.loopexit

.loopexit:                                        ; preds = %38, %.preheader, %42
  ret i32 0
}